target datalayout = "e-m:e-p270:32:32-p271:32:32-p272:64:64-i64:64-i128:128-f80:128-n8:16:32:64-S128"
target triple = "x86_64-pc-linux-gnu"

%"class.ncnn::DataReader" = type { ptr }
%"class.ncnn::DataReaderFromMemory" = type { %"class.ncnn::DataReader", ptr }
%"class.ncnn::DataReaderFromMemoryPrivate" = type { ptr }

@.str = private unnamed_addr constant [6 x i8] c"%s%%n\00", align 1

; Function Attrs: mustprogress uwtable
define hidden noundef i32 @_ZNK4ncnn20DataReaderFromMemory4scanEPKcPv(ptr noundef nonnull align 8 dereferenceable(16) %0, ptr noundef %1, ptr noundef %2) unnamed_addr #1 align 2 {
  %4 = alloca ptr, align 8
  %5 = alloca ptr, align 8
  %6 = alloca ptr, align 8
  %7 = alloca i64, align 8
  %8 = alloca ptr, align 8
  %9 = alloca i32, align 4
  %10 = alloca i32, align 4
  store ptr %0, ptr %4, align 8, !tbaa !25
  store ptr %1, ptr %5, align 8, !tbaa !9
  store ptr %2, ptr %6, align 8, !tbaa !11
  %11 = load ptr, ptr %4, align 8
  call void @llvm.lifetime.start.p0(i64 8, ptr %7) #9
  %12 = load ptr, ptr %5, align 8, !tbaa !9
  %13 = call i64 @strlen(ptr noundef %12) #11
  store i64 %13, ptr %7, align 8, !tbaa !12
  call void @llvm.lifetime.start.p0(i64 8, ptr %8) #9
  %14 = load i64, ptr %7, align 8, !tbaa !12
  %15 = add i64 %14, 4
  %16 = call noalias noundef nonnull ptr @_Znam(i64 noundef %15) #12
  store ptr %16, ptr %8, align 8, !tbaa !9
  %17 = load ptr, ptr %8, align 8, !tbaa !9
  %18 = load ptr, ptr %5, align 8, !tbaa !9
  %19 = call i32 (ptr, ptr, ...) @sprintf(ptr noundef %17, ptr noundef @.str, ptr noundef %18) #9
  call void @llvm.lifetime.start.p0(i64 4, ptr %9) #9
  store i32 0, ptr %9, align 4, !tbaa !27
  call void @llvm.lifetime.start.p0(i64 4, ptr %10) #9
  %20 = getelementptr inbounds nuw %"class.ncnn::DataReaderFromMemory", ptr %11, i32 0, i32 1
  %21 = load ptr, ptr %20, align 8, !tbaa !29
  %22 = getelementptr inbounds nuw %"class.ncnn::DataReaderFromMemoryPrivate", ptr %21, i32 0, i32 0
  %23 = load ptr, ptr %22, align 8, !tbaa !32
  %24 = load ptr, ptr %23, align 8, !tbaa !9
  %25 = load ptr, ptr %8, align 8, !tbaa !9
  %26 = load ptr, ptr %6, align 8, !tbaa !11
  %27 = call i32 (ptr, ptr, ...) @__isoc99_sscanf(ptr noundef %24, ptr noundef %25, ptr noundef %26, ptr noundef %9) #9
  store i32 %27, ptr %10, align 4, !tbaa !27
  %28 = load i32, ptr %9, align 4, !tbaa !27
  %29 = getelementptr inbounds nuw %"class.ncnn::DataReaderFromMemory", ptr %11, i32 0, i32 1
  %30 = load ptr, ptr %29, align 8, !tbaa !29
  %31 = getelementptr inbounds nuw %"class.ncnn::DataReaderFromMemoryPrivate", ptr %30, i32 0, i32 0
  %32 = load ptr, ptr %31, align 8, !tbaa !32
  %33 = load ptr, ptr %32, align 8, !tbaa !9
  %34 = sext i32 %28 to i64
  %35 = getelementptr inbounds i8, ptr %33, i64 %34
  store ptr %35, ptr %32, align 8, !tbaa !9
  %36 = load ptr, ptr %8, align 8, !tbaa !9
  %37 = icmp eq ptr %36, null
  br i1 %37, label %39, label %38

38:                                               ; preds = %3
  call void @_ZdaPv(ptr noundef %36) #10
  br label %39

39:                                               ; preds = %38, %3
  %40 = load i32, ptr %9, align 4, !tbaa !27
  %41 = icmp sgt i32 %40, 0
  br i1 %41, label %42, label %44

42:                                               ; preds = %39
  %43 = load i32, ptr %10, align 4, !tbaa !27
  br label %45

44:                                               ; preds = %39
  br label %45

45:                                               ; preds = %44, %42
  %46 = phi i32 [ %43, %42 ], [ 0, %44 ]
  call void @llvm.lifetime.end.p0(i64 4, ptr %10) #9
  call void @llvm.lifetime.end.p0(i64 4, ptr %9) #9
  call void @llvm.lifetime.end.p0(i64 8, ptr %8) #9
  call void @llvm.lifetime.end.p0(i64 8, ptr %7) #9
  ret i32 %46
}