; Function Attrs: mustprogress uwtable
define hidden noundef i32 @_ZNK4ncnn20DataReaderFromMemory4scanEPKcPv(ptr noundef nonnull readonly align 8 captures(none) dereferenceable(16) %0, ptr noundef %1, ptr noundef %2) unnamed_addr #2 align 2 {
  %4 = alloca i32, align 4
  %5 = tail call i64 @strlen(ptr noundef nonnull dereferenceable(1) %1) #14
  %6 = add i64 %5, 4
  %7 = tail call noalias noundef nonnull ptr @_Znam(i64 noundef %6) #15
  %8 = tail call i32 (ptr, ptr, ...) @sprintf(ptr noundef nonnull dereferenceable(1) %7, ptr noundef nonnull dereferenceable(1) @.str, ptr noundef nonnull %1) #16
  call void @llvm.lifetime.start.p0(i64 4, ptr nonnull %4) #16
  store i32 0, ptr %4, align 4, !tbaa !19
  %9 = getelementptr inbounds nuw i8, ptr %0, i64 8
  %10 = load ptr, ptr %9, align 8, !tbaa !16
  %11 = load ptr, ptr %10, align 8, !tbaa !21
  %12 = load ptr, ptr %11, align 8, !tbaa !25
  %13 = call i32 (ptr, ptr, ...) @__isoc99_sscanf(ptr noundef %12, ptr noundef nonnull %7, ptr noundef %2, ptr noundef nonnull %4) #16
  %14 = load i32, ptr %4, align 4, !tbaa !19
  %15 = load ptr, ptr %9, align 8, !tbaa !16
  %16 = load ptr, ptr %15, align 8, !tbaa !21
  %17 = load ptr, ptr %16, align 8, !tbaa !25
  %18 = sext i32 %14 to i64
  %19 = getelementptr inbounds i8, ptr %17, i64 %18
  store ptr %19, ptr %16, align 8, !tbaa !25
  call void @_ZdaPv(ptr noundef nonnull %7) #13
  %20 = load i32, ptr %4, align 4, !tbaa !19
  %21 = icmp sgt i32 %20, 0
  %22 = select i1 %21, i32 %13, i32 0
  call void @llvm.lifetime.end.p0(i64 4, ptr nonnull %4) #16
  ret i32 %22
}